; Function Attrs: nofree norecurse nosync nounwind memory(read, inaccessiblemem: none) uwtable
define dso_local ptr @zslGetElementByRank(ptr noundef readonly captures(none) %0, i64 noundef %1) local_unnamed_addr #9 {
  %3 = getelementptr inbounds nuw i8, ptr %0, i64 24
  %4 = load i32, ptr %3, align 8, !tbaa !12
  %5 = icmp sgt i32 %4, 0
  br i1 %5, label %.preheader.preheader.i, label %zslGetElementByRankFromNode.exit

.preheader.preheader.i:                           ; preds = %2
  %6 = add nsw i32 %4, -1
  %7 = load ptr, ptr %0, align 8, !tbaa !18
  %8 = zext nneg i32 %6 to i64
  br label %.preheader.i

9:                                                ; preds = %.critedge.i
  %indvars.iv.next.i = add nsw i64 %indvars.iv.i, -1
  %10 = icmp sgt i64 %indvars.iv.i, 0
  br i1 %10, label %.preheader.i, label %zslGetElementByRankFromNode.exit, !llvm.loop !50

.preheader.i:                                     ; preds = %9, %.preheader.preheader.i
  %indvars.iv.i = phi i64 [ %8, %.preheader.preheader.i ], [ %indvars.iv.next.i, %9 ]
  %.01826.i = phi i64 [ 0, %.preheader.preheader.i ], [ %.1.i, %9 ]
  %.01925.i = phi ptr [ %7, %.preheader.preheader.i ], [ %.120.i, %9 ]
  br label %11

11:                                               ; preds = %15, %.preheader.i
  %.120.i = phi ptr [ %14, %15 ], [ %.01925.i, %.preheader.i ]
  %.1.i = phi i64 [ %18, %15 ], [ %.01826.i, %.preheader.i ]
  %12 = getelementptr inbounds nuw i8, ptr %.120.i, i64 24
  %13 = getelementptr inbounds nuw [0 x %struct.zskiplistLevel], ptr %12, i64 0, i64 %indvars.iv.i
  %14 = load ptr, ptr %13, align 8, !tbaa !20
  %.not.i = icmp eq ptr %14, null
  br i1 %.not.i, label %.critedge.i, label %15

15:                                               ; preds = %11
  %16 = getelementptr inbounds nuw i8, ptr %13, i64 8
  %17 = load i64, ptr %16, align 8, !tbaa !27
  %18 = add i64 %17, %.1.i
  %.not24.i = icmp ugt i64 %18, %1
  br i1 %.not24.i, label %.critedge.i, label %11, !llvm.loop !51

.critedge.i:                                      ; preds = %15, %11
  %19 = icmp eq i64 %.1.i, %1
  br i1 %19, label %zslGetElementByRankFromNode.exit, label %9

zslGetElementByRankFromNode.exit:                 ; preds = %9, %.critedge.i, %2
  %.021.i = phi ptr [ null, %2 ], [ %.120.i, %.critedge.i ], [ null, %9 ]
  ret ptr %.021.i
}